target datalayout = "e-m:e-p270:32:32-p271:32:32-p272:64:64-i64:64-i128:128-f80:128-n8:16:32:64-S128"
target triple = "x86_64-pc-linux-gnu"

%struct.grep_pat = type { ptr, ptr, i32, i32, ptr, i64, i32, %struct.re_pattern_buffer, ptr, ptr, ptr, ptr, ptr, i32, i8 }
%struct.re_pattern_buffer = type { ptr, i64, i64, i64, ptr, ptr, i64, i8 }

@.str.42 = private unnamed_addr constant [16 x i8] c"In '%s' at %d, \00", align 1
@.str.43 = private unnamed_addr constant [5 x i8] c"%s, \00", align 1
@.str.44 = private unnamed_addr constant [11 x i8] c"%s'%s': %s\00", align 1

; Function Attrs: noreturn nounwind uwtable
define internal void @compile_regexp_failed(ptr noundef %0, ptr noundef %1) #8 {
  %3 = alloca ptr, align 8
  %4 = alloca ptr, align 8
  %5 = alloca [1024 x i8], align 16
  store ptr %0, ptr %3, align 8, !tbaa !44
  store ptr %1, ptr %4, align 8, !tbaa !9
  call void @llvm.lifetime.start.p0(i64 1024, ptr %5) #11
  %6 = load ptr, ptr %3, align 8, !tbaa !44
  %7 = getelementptr inbounds nuw %struct.grep_pat, ptr %6, i32 0, i32 2
  %8 = load i32, ptr %7, align 8, !tbaa !53
  %9 = icmp ne i32 %8, 0
  br i1 %9, label %10, label %19

10:                                               ; preds = %2
  %11 = getelementptr inbounds [1024 x i8], ptr %5, i64 0, i64 0
  %12 = load ptr, ptr %3, align 8, !tbaa !44
  %13 = getelementptr inbounds nuw %struct.grep_pat, ptr %12, i32 0, i32 1
  %14 = load ptr, ptr %13, align 8, !tbaa !52
  %15 = load ptr, ptr %3, align 8, !tbaa !44
  %16 = getelementptr inbounds nuw %struct.grep_pat, ptr %15, i32 0, i32 2
  %17 = load i32, ptr %16, align 8, !tbaa !53
  %18 = call i32 (ptr, i64, ptr, ...) @xsnprintf(ptr noundef %11, i64 noundef 1024, ptr noundef @.str.42, ptr noundef %14, i32 noundef %17)
  br label %33

19:                                               ; preds = %2
  %20 = load ptr, ptr %3, align 8, !tbaa !44
  %21 = getelementptr inbounds nuw %struct.grep_pat, ptr %20, i32 0, i32 1
  %22 = load ptr, ptr %21, align 8, !tbaa !52
  %23 = icmp ne ptr %22, null
  br i1 %23, label %24, label %30

24:                                               ; preds = %19
  %25 = getelementptr inbounds [1024 x i8], ptr %5, i64 0, i64 0
  %26 = load ptr, ptr %3, align 8, !tbaa !44
  %27 = getelementptr inbounds nuw %struct.grep_pat, ptr %26, i32 0, i32 1
  %28 = load ptr, ptr %27, align 8, !tbaa !52
  %29 = call i32 (ptr, i64, ptr, ...) @xsnprintf(ptr noundef %25, i64 noundef 1024, ptr noundef @.str.43, ptr noundef %28)
  br label %32

30:                                               ; preds = %19
  %31 = getelementptr inbounds [1024 x i8], ptr %5, i64 0, i64 0
  store i8 0, ptr %31, align 16, !tbaa !36
  br label %32

32:                                               ; preds = %30, %24
  br label %33

33:                                               ; preds = %32, %10
  %34 = getelementptr inbounds [1024 x i8], ptr %5, i64 0, i64 0
  %35 = load ptr, ptr %3, align 8, !tbaa !44
  %36 = getelementptr inbounds nuw %struct.grep_pat, ptr %35, i32 0, i32 4
  %37 = load ptr, ptr %36, align 8, !tbaa !46
  %38 = load ptr, ptr %4, align 8, !tbaa !9
  call void (ptr, ...) @die(ptr noundef @.str.44, ptr noundef %34, ptr noundef %37, ptr noundef %38) #13
  unreachable
}