; Function Attrs: noreturn nounwind uwtable
define internal fastcc void @compile_regexp_failed(ptr noundef readonly captures(none) %0, ptr noundef nonnull %1) unnamed_addr #12 {
  %3 = alloca [1024 x i8], align 16
  call void @llvm.lifetime.start.p0(i64 1024, ptr nonnull %3) #18
  %4 = getelementptr inbounds nuw i8, ptr %0, i64 16
  %5 = load i32, ptr %4, align 8, !tbaa !38
  %.not = icmp eq i32 %5, 0
  %6 = getelementptr inbounds nuw i8, ptr %0, i64 8
  %7 = load ptr, ptr %6, align 8, !tbaa !37
  br i1 %.not, label %10, label %8

8:                                                ; preds = %2
  %9 = call i32 (ptr, i64, ptr, ...) @xsnprintf(ptr noundef nonnull %3, i64 noundef 1024, ptr noundef nonnull @.str.42, ptr noundef %7, i32 noundef %5) #18
  br label %14

10:                                               ; preds = %2
  %.not8 = icmp eq ptr %7, null
  br i1 %.not8, label %13, label %11

11:                                               ; preds = %10
  %12 = call i32 (ptr, i64, ptr, ...) @xsnprintf(ptr noundef nonnull %3, i64 noundef 1024, ptr noundef nonnull @.str.43, ptr noundef nonnull %7) #18
  br label %14

13:                                               ; preds = %10
  store i8 0, ptr %3, align 16, !tbaa !23
  br label %14

14:                                               ; preds = %11, %13, %8
  %15 = getelementptr inbounds nuw i8, ptr %0, i64 24
  %16 = load ptr, ptr %15, align 8, !tbaa !30
  call void (ptr, ...) @die(ptr noundef nonnull @.str.44, ptr noundef nonnull %3, ptr noundef %16, ptr noundef nonnull %1) #20
  unreachable
}